(lp0
(I178
I178
I180
S'h'
p1
tp2
a(I178
I183
I174
g1
tp3
a(I176
I177
I182
g1
tp4
a(I176
I179
I178
g1
tp5
a(I187
I180
I184
g1
tp6
a(I189
I173
I178
g1
tp7
a(I192
I175
I183
g1
tp8
a(I184
I172
I174
g1
tp9
a(I180
I175
I185
g1
tp10
a(I191
I167
I180
g1
tp11
a(I188
I171
I168
g1
tp12
a(I185
I180
I173
g1
tp13
a(I171
I181
I167
g1
tp14
a(I178
I178
I172
g1
tp15
a(I169
I174
I171
g1
tp16
a(I185
I176
I166
g1
tp17
a(I200
I171
I179
g1
tp18
a(I184
I176
I185
g1
tp19
a(I191
I175
I180
g1
tp20
a(I177
I175
I182
g1
tp21
a(I188
I180
I184
g1
tp22
a(I191
I173
I172
g1
tp23
a(I179
I170
I184
g1
tp24
a(I186
I176
I189
g1
tp25
a(I181
I185
I172
g1
tp26
a(I200
I171
I165
g1
tp27
a(I185
I171
I173
g1
tp28
a(I182
I181
I180
g1
tp29
a(I186
I184
I187
S'k'
p30
tp31
a(I182
I186
I183
g30
tp32
a(I171
I186
I195
g30
tp33
a(I184
I191
I190
g30
tp34
a(I178
I196
I186
g30
tp35
a(I176
I198
I185
g30
tp36
a(I174
I196
I181
g30
tp37
a(I170
I193
I182
g30
tp38
a(I173
I196
I180
g30
tp39
a(I181
I199
I182
g30
tp40
a(I170
I185
I168
g30
tp41
a(I175
I197
I191
g30
tp42
a(I179
I185
I197
g30
tp43
a(I162
I199
I188
g30
tp44
a(I175
I192
I173
g30
tp45
a(I174
I179
I182
g30
tp46
a(I177
I188
I197
g30
tp47
a(I178
I195
I179
g30
tp48
a(I180
I197
I180
g30
tp49
a(I174
I190
I180
g30
tp50
a(I184
I192
I186
g30
tp51
a(I168
I187
I187
g30
tp52
a(I187
I189
I191
g30
tp53
a(I164
I201
I185
g30
tp54
a(I170
I195
I187
g30
tp55
a(I183
I199
I184
g30
tp56
a(I162
I187
I181
g30
tp57
a(I170
I197
I195
g30
tp58
a(I182
I190
I180
g30
tp59
a(I173
I191
I189
g30
tp60
a(I178
I176
I190
S'b'
p61
tp62
a(I169
I171
I175
g61
tp63
a(I175
I182
I187
g61
tp64
a(I177
I168
I168
g61
tp65
a(I174
I174
I199
g61
tp66
a(I175
I173
I177
g61
tp67
a(I174
I182
I202
g61
tp68
a(I177
I176
I191
g61
tp69
a(I179
I181
I174
g61
tp70
a(I172
I185
I192
g61
tp71
a(I171
I179
I186
g61
tp72
a(I169
I177
I205
g61
tp73
a(I168
I163
I203
g61
tp74
a(I181
I180
I201
g61
tp75
a(I169
I177
I187
g61
tp76
a(I179
I182
I181
g61
tp77
a(I182
I179
I196
g61
tp78
a(I180
I183
I193
g61
tp79
a(I176
I166
I192
g61
tp80
a(I168
I178
I193
g61
tp81
a(I175
I171
I191
g61
tp82
a(I171
I191
I195
g61
tp83
a(I172
I175
I209
g61
tp84
a(I176
I169
I180
g61
tp85
a(I181
I182
I176
g61
tp86
a(I179
I176
I198
g61
tp87
a(I185
I184
I193
g61
tp88
a(I173
I168
I199
g61
tp89
a(I166
I182
I200
g61
tp90
a.